; Function Attrs: mustprogress uwtable
define void @_ZN32pxrInternal_v0_24__pxrReserved__24UsdImagingCapsuleAdapter24InvalidateImagingSubprimERKNS_7UsdPrimERKNS_7TfTokenERKSt6vectorIS4_SaIS4_EENS_34UsdImagingPropertyInvalidationTypeE(ptr dead_on_unwind noalias writable sret(%"class.pxrInternal_v0_24__pxrReserved__::HdDataSourceLocatorSet") align 8 %0, ptr nocapture nonnull readnone align 8 %1, ptr noundef nonnull align 8 dereferenceable(32) %2, ptr noundef nonnull align 8 dereferenceable(8) %3, ptr noundef nonnull align 8 dereferenceable(24) %4, i32 noundef %5) unnamed_addr #0 align 2 {
  %7 = load ptr, ptr %3, align 8
  %8 = icmp eq ptr %7, null
  br i1 %8, label %9, label %15

9:                                                ; preds = %6
  %10 = tail call noundef nonnull align 8 dereferenceable(8) ptr @_ZN32pxrInternal_v0_24__pxrReserved__14UsdGeomCapsule16_GetStaticTfTypeEv()
  %11 = tail call noundef ptr @_ZN32pxrInternal_v0_24__pxrReserved__17UsdSchemaRegistry14FindSchemaInfoERKNS_6TfTypeE(ptr noundef nonnull align 8 dereferenceable(8) %10)
  %12 = tail call noundef zeroext i1 @_ZNK32pxrInternal_v0_24__pxrReserved__7UsdPrim4_IsAEPKNS_17UsdSchemaRegistry10SchemaInfoE(ptr noundef nonnull align 8 dereferenceable(32) %2, ptr noundef %11)
  br i1 %12, label %13, label %14

13:                                               ; preds = %9
  tail call void @_ZN32pxrInternal_v0_24__pxrReserved__33UsdImagingDataSourceImplicitsPrimINS_14UsdGeomCapsuleENS_15HdCapsuleSchemaEE10InvalidateERKNS_7UsdPrimERKNS_7TfTokenERKSt6vectorIS7_SaIS7_EENS_34UsdImagingPropertyInvalidationTypeE(ptr dead_on_unwind writable sret(%"class.pxrInternal_v0_24__pxrReserved__::HdDataSourceLocatorSet") align 8 %0, ptr noundef nonnull align 8 dereferenceable(32) %2, ptr noundef nonnull align 8 dereferenceable(8) %3, ptr noundef nonnull align 8 dereferenceable(24) %4, i32 noundef %5)
  br label %18

14:                                               ; preds = %9
  tail call void @_ZN32pxrInternal_v0_24__pxrReserved__33UsdImagingDataSourceImplicitsPrimINS_16UsdGeomCapsule_1ENS_15HdCapsuleSchemaEE10InvalidateERKNS_7UsdPrimERKNS_7TfTokenERKSt6vectorIS7_SaIS7_EENS_34UsdImagingPropertyInvalidationTypeE(ptr dead_on_unwind writable sret(%"class.pxrInternal_v0_24__pxrReserved__::HdDataSourceLocatorSet") align 8 %0, ptr noundef nonnull align 8 dereferenceable(32) %2, ptr noundef nonnull align 8 dereferenceable(8) %3, ptr noundef nonnull align 8 dereferenceable(24) %4, i32 noundef %5)
  br label %18

15:                                               ; preds = %6
  %16 = getelementptr inbounds nuw i8, ptr %0, i64 448
  store i32 0, ptr %16, align 8
  %17 = getelementptr inbounds nuw i8, ptr %0, i64 452
  store i32 8, ptr %17, align 4
  br label %18

18:                                               ; preds = %15, %14, %13
  ret void
}